#include <math.h>
#include <stdio.h>
#include <stdlib.h>
#include <string.h>

int main()
{
	int m,n[100]={0};
	double sum[100]={0},a=1,b=2,c=0;
	scanf("%d",&m);
	for (int i=0;i<m;i++){
		scanf("%d",&n[i]);
		a=1;
		b=2;
		for(int k=0;k<n[i];k++){
			sum[i]+=b/a;
			c=b;
			b=a+b;
			a=c;
		}
		printf("%.3lf\n",sum[i]);
	}
	return 0;
}